target datalayout = "e-m:e-p270:32:32-p271:32:32-p272:64:64-i64:64-i128:128-f80:128-n8:16:32:64-S128"
target triple = "x86_64-pc-linux-gnu"

; Function Attrs: nounwind uwtable
define zeroext i8 @lv_color_format_get_bpp(i32 noundef %0) #0 {
  %2 = alloca i8, align 1
  %3 = alloca i32, align 4
  store i32 %0, ptr %3, align 4, !tbaa !9
  %4 = load i32, ptr %3, align 4, !tbaa !9
  switch i32 %4, label %13 [
    i32 7, label %5
    i32 11, label %5
    i32 8, label %6
    i32 12, label %6
    i32 9, label %7
    i32 13, label %7
    i32 6, label %8
    i32 14, label %8
    i32 10, label %8
    i32 24, label %8
    i32 20, label %9
    i32 18, label %9
    i32 38, label %9
    i32 21, label %9
    i32 22, label %9
    i32 23, label %9
    i32 19, label %10
    i32 15, label %10
    i32 16, label %11
    i32 17, label %11
    i32 0, label %12
  ]

5:                                                ; preds = %1, %1
  store i8 1, ptr %2, align 1
  br label %14

6:                                                ; preds = %1, %1
  store i8 2, ptr %2, align 1
  br label %14

7:                                                ; preds = %1, %1
  store i8 4, ptr %2, align 1
  br label %14

8:                                                ; preds = %1, %1, %1, %1
  store i8 8, ptr %2, align 1
  br label %14

9:                                                ; preds = %1, %1, %1, %1, %1, %1
  store i8 16, ptr %2, align 1
  br label %14

10:                                               ; preds = %1, %1
  store i8 24, ptr %2, align 1
  br label %14

11:                                               ; preds = %1, %1
  store i8 32, ptr %2, align 1
  br label %14

12:                                               ; preds = %1
  br label %13

13:                                               ; preds = %1, %12
  store i8 0, ptr %2, align 1
  br label %14

14:                                               ; preds = %13, %11, %10, %9, %8, %7, %6, %5
  %15 = load i8, ptr %2, align 1
  ret i8 %15
}